target datalayout = "e-m:e-p270:32:32-p271:32:32-p272:64:64-i64:64-i128:128-f80:128-n8:16:32:64-S128"
target triple = "x86_64-pc-linux-gnu"

; Function Attrs: inlinehint nounwind sspstrong willreturn memory(none) uwtable
define internal zeroext i1 @RB_FIXNUM_P(i64 noundef %0) #6 {
  %2 = alloca i64, align 8
  store i64 %0, ptr %2, align 8, !tbaa !6
  %3 = load i64, ptr %2, align 8, !tbaa !6
  %4 = and i64 %3, 1
  %5 = icmp ne i64 %4, 0
  ret i1 %5
}

; Function Attrs: inlinehint nounwind sspstrong uwtable
define internal i32 @rb_num2int_inline(i64 noundef %0) #3 {
  %2 = alloca i64, align 8
  %3 = alloca i64, align 8
  store i64 %0, ptr %2, align 8, !tbaa !6
  call void @llvm.lifetime.start.p0(i64 8, ptr %3) #23
  %4 = load i64, ptr %2, align 8, !tbaa !6
  %5 = call zeroext i1 @RB_FIXNUM_P(i64 noundef %4) #24
  br i1 %5, label %6, label %9

6:                                                ; preds = %1
  %7 = load i64, ptr %2, align 8, !tbaa !6
  %8 = call i64 @rb_fix2int(i64 noundef %7)
  store i64 %8, ptr %3, align 8, !tbaa !6
  br label %12

9:                                                ; preds = %1
  %10 = load i64, ptr %2, align 8, !tbaa !6
  %11 = call i64 @rb_num2int(i64 noundef %10)
  store i64 %11, ptr %3, align 8, !tbaa !6
  br label %12

12:                                               ; preds = %9, %6
  %13 = load i64, ptr %3, align 8, !tbaa !6
  %14 = trunc i64 %13 to i32
  call void @llvm.lifetime.end.p0(i64 8, ptr %3) #23
  ret i32 %14
}

; Function Attrs: nounwind sspstrong uwtable
define internal i64 @rt__valid_civil_p(i64 noundef %0, i64 noundef %1, i64 noundef %2, i64 noundef %3) #0 {
  %5 = alloca i64, align 8
  %6 = alloca i64, align 8
  %7 = alloca i64, align 8
  %8 = alloca i64, align 8
  %9 = alloca i64, align 8
  %10 = alloca i64, align 8
  %11 = alloca i64, align 8
  %12 = alloca i32, align 4
  %13 = alloca i32, align 4
  %14 = alloca i32, align 4
  %15 = alloca i32, align 4
  %16 = alloca i32, align 4
  %17 = alloca i32, align 4
  store i64 %0, ptr %6, align 8, !tbaa !6
  store i64 %1, ptr %7, align 8, !tbaa !6
  store i64 %2, ptr %8, align 8, !tbaa !6
  store i64 %3, ptr %9, align 8, !tbaa !6
  call void @llvm.lifetime.start.p0(i64 8, ptr %10) #23
  call void @llvm.lifetime.start.p0(i64 8, ptr %11) #23
  call void @llvm.lifetime.start.p0(i64 4, ptr %12) #23
  call void @llvm.lifetime.start.p0(i64 4, ptr %13) #23
  call void @llvm.lifetime.start.p0(i64 4, ptr %14) #23
  call void @llvm.lifetime.start.p0(i64 4, ptr %15) #23
  call void @llvm.lifetime.start.p0(i64 4, ptr %16) #23
  %18 = load i64, ptr %6, align 8, !tbaa !6
  %19 = load i64, ptr %7, align 8, !tbaa !6
  %20 = call i32 @rb_num2int_inline(i64 noundef %19)
  %21 = load i64, ptr %8, align 8, !tbaa !6
  %22 = call i32 @rb_num2int_inline(i64 noundef %21)
  %23 = load i64, ptr %9, align 8, !tbaa !6
  %24 = call double @rb_num2dbl(i64 noundef %23)
  %25 = call i32 @valid_civil_p(i64 noundef %18, i32 noundef %20, i32 noundef %22, double noundef %24, ptr noundef %10, ptr noundef %12, ptr noundef %13, ptr noundef %14, ptr noundef %15, ptr noundef %16)
  %26 = icmp ne i32 %25, 0
  br i1 %26, label %28, label %27

27:                                               ; preds = %4
  store i64 4, ptr %5, align 8
  store i32 1, ptr %17, align 4
  br label %32

28:                                               ; preds = %4
  %29 = load i64, ptr %10, align 8, !tbaa !6
  %30 = load i32, ptr %15, align 4, !tbaa !19
  call void @encode_jd(i64 noundef %29, i32 noundef %30, ptr noundef %11)
  %31 = load i64, ptr %11, align 8, !tbaa !6
  store i64 %31, ptr %5, align 8
  store i32 1, ptr %17, align 4
  br label %32

32:                                               ; preds = %28, %27
  call void @llvm.lifetime.end.p0(i64 4, ptr %16) #23
  call void @llvm.lifetime.end.p0(i64 4, ptr %15) #23
  call void @llvm.lifetime.end.p0(i64 4, ptr %14) #23
  call void @llvm.lifetime.end.p0(i64 4, ptr %13) #23
  call void @llvm.lifetime.end.p0(i64 4, ptr %12) #23
  call void @llvm.lifetime.end.p0(i64 8, ptr %11) #23
  call void @llvm.lifetime.end.p0(i64 8, ptr %10) #23
  %33 = load i64, ptr %5, align 8
  ret i64 %33
}